target datalayout = "e-m:e-p270:32:32-p271:32:32-p272:64:64-i64:64-i128:128-f80:128-n8:16:32:64-S128"
target triple = "x86_64-pc-linux-gnu"

%struct.evp_test_st = type { %struct.stanza_st, ptr, i32, ptr, ptr, ptr, ptr, ptr, ptr, i32 }
%struct.stanza_st = type { ptr, ptr, i32, i32, i32, i32, i32, i32, [150 x %struct.pair_st], ptr, [32768 x i8] }
%struct.pair_st = type { ptr, ptr }
%struct.cipher_data_st = type { ptr, ptr, i32, i32, ptr, i64, i64, ptr, ptr, i32, i64, ptr, i64, ptr, i64, [4 x ptr], [4 x i64], i32, i32, ptr, ptr, i64, i32, ptr, i64, ptr, ptr }

@.str.29 = private unnamed_addr constant [27 x i8] c"../openssl/test/evp_test.c\00", align 1

; Function Attrs: inlinehint nounwind uwtable
define internal ptr @ossl_check_OPENSSL_STRING_freefunc_type(ptr noundef %0) #5 {
  %2 = alloca ptr, align 8
  store ptr %0, ptr %2, align 8, !tbaa !97
  %3 = load ptr, ptr %2, align 8, !tbaa !97
  ret ptr %3
}

; Function Attrs: inlinehint nounwind uwtable
define internal ptr @ossl_check_OPENSSL_STRING_sk_type(ptr noundef %0) #5 {
  %2 = alloca ptr, align 8
  store ptr %0, ptr %2, align 8, !tbaa !131
  %3 = load ptr, ptr %2, align 8, !tbaa !131
  ret ptr %3
}

; Function Attrs: nounwind uwtable
define internal void @ctrlfree(ptr noundef %0) #0 {
  %2 = alloca ptr, align 8
  store ptr %0, ptr %2, align 8, !tbaa !131
  %3 = load ptr, ptr %2, align 8, !tbaa !131
  %4 = call ptr @ossl_check_OPENSSL_STRING_sk_type(ptr noundef %3)
  %5 = call ptr @ossl_check_OPENSSL_STRING_freefunc_type(ptr noundef @openssl_free)
  call void @OPENSSL_sk_pop_free(ptr noundef %4, ptr noundef %5)
  ret void
}

; Function Attrs: nounwind uwtable
define internal void @cipher_test_cleanup(ptr noundef %0) #0 {
  %2 = alloca ptr, align 8
  %3 = alloca i32, align 4
  %4 = alloca ptr, align 8
  store ptr %0, ptr %2, align 8, !tbaa !15
  call void @llvm.lifetime.start.p0(i64 4, ptr %3) #10
  call void @llvm.lifetime.start.p0(i64 8, ptr %4) #10
  %5 = load ptr, ptr %2, align 8, !tbaa !15
  %6 = getelementptr inbounds nuw %struct.evp_test_st, ptr %5, i32 0, i32 8
  %7 = load ptr, ptr %6, align 8, !tbaa !66
  store ptr %7, ptr %4, align 8, !tbaa !139
  %8 = load ptr, ptr %4, align 8, !tbaa !139
  %9 = getelementptr inbounds nuw %struct.cipher_data_st, ptr %8, i32 0, i32 4
  %10 = load ptr, ptr %9, align 8, !tbaa !147
  call void @CRYPTO_free(ptr noundef %10, ptr noundef @.str.29, i32 noundef 984)
  %11 = load ptr, ptr %4, align 8, !tbaa !139
  %12 = getelementptr inbounds nuw %struct.cipher_data_st, ptr %11, i32 0, i32 7
  %13 = load ptr, ptr %12, align 8, !tbaa !148
  call void @CRYPTO_free(ptr noundef %13, ptr noundef @.str.29, i32 noundef 985)
  %14 = load ptr, ptr %4, align 8, !tbaa !139
  %15 = getelementptr inbounds nuw %struct.cipher_data_st, ptr %14, i32 0, i32 8
  %16 = load ptr, ptr %15, align 8, !tbaa !149
  call void @CRYPTO_free(ptr noundef %16, ptr noundef @.str.29, i32 noundef 986)
  %17 = load ptr, ptr %4, align 8, !tbaa !139
  %18 = getelementptr inbounds nuw %struct.cipher_data_st, ptr %17, i32 0, i32 13
  %19 = load ptr, ptr %18, align 8, !tbaa !150
  call void @CRYPTO_free(ptr noundef %19, ptr noundef @.str.29, i32 noundef 987)
  %20 = load ptr, ptr %4, align 8, !tbaa !139
  %21 = getelementptr inbounds nuw %struct.cipher_data_st, ptr %20, i32 0, i32 11
  %22 = load ptr, ptr %21, align 8, !tbaa !151
  call void @CRYPTO_free(ptr noundef %22, ptr noundef @.str.29, i32 noundef 988)
  store i32 0, ptr %3, align 4, !tbaa !9
  br label %23

23:                                               ; preds = %33, %1
  %24 = load i32, ptr %3, align 4, !tbaa !9
  %25 = icmp slt i32 %24, 4
  br i1 %25, label %26, label %36

26:                                               ; preds = %23
  %27 = load ptr, ptr %4, align 8, !tbaa !139
  %28 = getelementptr inbounds nuw %struct.cipher_data_st, ptr %27, i32 0, i32 15
  %29 = load i32, ptr %3, align 4, !tbaa !9
  %30 = sext i32 %29 to i64
  %31 = getelementptr inbounds [4 x ptr], ptr %28, i64 0, i64 %30
  %32 = load ptr, ptr %31, align 8, !tbaa !4
  call void @CRYPTO_free(ptr noundef %32, ptr noundef @.str.29, i32 noundef 990)
  br label %33

33:                                               ; preds = %26
  %34 = load i32, ptr %3, align 4, !tbaa !9
  %35 = add nsw i32 %34, 1
  store i32 %35, ptr %3, align 4, !tbaa !9
  br label %23, !llvm.loop !152

36:                                               ; preds = %23
  %37 = load ptr, ptr %4, align 8, !tbaa !139
  %38 = getelementptr inbounds nuw %struct.cipher_data_st, ptr %37, i32 0, i32 19
  %39 = load ptr, ptr %38, align 8, !tbaa !153
  call void @CRYPTO_free(ptr noundef %39, ptr noundef @.str.29, i32 noundef 991)
  %40 = load ptr, ptr %4, align 8, !tbaa !139
  %41 = getelementptr inbounds nuw %struct.cipher_data_st, ptr %40, i32 0, i32 23
  %42 = load ptr, ptr %41, align 8, !tbaa !154
  call void @CRYPTO_free(ptr noundef %42, ptr noundef @.str.29, i32 noundef 992)
  %43 = load ptr, ptr %4, align 8, !tbaa !139
  %44 = getelementptr inbounds nuw %struct.cipher_data_st, ptr %43, i32 0, i32 1
  %45 = load ptr, ptr %44, align 8, !tbaa !144
  call void @EVP_CIPHER_free(ptr noundef %45)
  %46 = load ptr, ptr %4, align 8, !tbaa !139
  %47 = getelementptr inbounds nuw %struct.cipher_data_st, ptr %46, i32 0, i32 26
  %48 = load ptr, ptr %47, align 8, !tbaa !141
  call void @ctrlfree(ptr noundef %48)
  call void @llvm.lifetime.end.p0(i64 8, ptr %4) #10
  call void @llvm.lifetime.end.p0(i64 4, ptr %3) #10
  ret void
}