; Function Attrs: nounwind uwtable
define internal void @cipher_test_cleanup(ptr noundef readonly captures(none) %0) #1 {
  %2 = getelementptr inbounds nuw i8, ptr %0, i64 35272
  %3 = load ptr, ptr %2, align 8, !tbaa !20
  %4 = getelementptr inbounds nuw i8, ptr %3, i64 24
  %5 = load ptr, ptr %4, align 8, !tbaa !120
  tail call void @CRYPTO_free(ptr noundef %5, ptr noundef nonnull @.str.29, i32 noundef 984) #10
  %6 = getelementptr inbounds nuw i8, ptr %3, i64 48
  %7 = load ptr, ptr %6, align 8, !tbaa !121
  tail call void @CRYPTO_free(ptr noundef %7, ptr noundef nonnull @.str.29, i32 noundef 985) #10
  %8 = getelementptr inbounds nuw i8, ptr %3, i64 56
  %9 = load ptr, ptr %8, align 8, !tbaa !122
  tail call void @CRYPTO_free(ptr noundef %9, ptr noundef nonnull @.str.29, i32 noundef 986) #10
  %10 = getelementptr inbounds nuw i8, ptr %3, i64 96
  %11 = load ptr, ptr %10, align 8, !tbaa !123
  tail call void @CRYPTO_free(ptr noundef %11, ptr noundef nonnull @.str.29, i32 noundef 987) #10
  %12 = getelementptr inbounds nuw i8, ptr %3, i64 80
  %13 = load ptr, ptr %12, align 8, !tbaa !124
  tail call void @CRYPTO_free(ptr noundef %13, ptr noundef nonnull @.str.29, i32 noundef 988) #10
  %14 = getelementptr inbounds nuw i8, ptr %3, i64 112
  br label %15

15:                                               ; preds = %1, %15
  %indvars.iv = phi i64 [ 0, %1 ], [ %indvars.iv.next, %15 ]
  %16 = getelementptr inbounds nuw [4 x ptr], ptr %14, i64 0, i64 %indvars.iv
  %17 = load ptr, ptr %16, align 8, !tbaa !10
  tail call void @CRYPTO_free(ptr noundef %17, ptr noundef nonnull @.str.29, i32 noundef 990) #10
  %indvars.iv.next = add nuw nsw i64 %indvars.iv, 1
  %exitcond.not = icmp eq i64 %indvars.iv.next, 4
  br i1 %exitcond.not, label %18, label %15, !llvm.loop !125

18:                                               ; preds = %15
  %19 = getelementptr inbounds nuw i8, ptr %3, i64 184
  %20 = load ptr, ptr %19, align 8, !tbaa !126
  tail call void @CRYPTO_free(ptr noundef %20, ptr noundef nonnull @.str.29, i32 noundef 991) #10
  %21 = getelementptr inbounds nuw i8, ptr %3, i64 216
  %22 = load ptr, ptr %21, align 8, !tbaa !127
  tail call void @CRYPTO_free(ptr noundef %22, ptr noundef nonnull @.str.29, i32 noundef 992) #10
  %23 = getelementptr inbounds nuw i8, ptr %3, i64 8
  %24 = load ptr, ptr %23, align 8, !tbaa !117
  tail call void @EVP_CIPHER_free(ptr noundef %24) #10
  %25 = getelementptr inbounds nuw i8, ptr %3, i64 240
  %26 = load ptr, ptr %25, align 8, !tbaa !113
  tail call void @OPENSSL_sk_pop_free(ptr noundef %26, ptr noundef nonnull @openssl_free) #10
  ret void
}